target datalayout = "e-m:e-p270:32:32-p271:32:32-p272:64:64-i64:64-i128:128-f80:128-n8:16:32:64-S128"
target triple = "x86_64-pc-linux-gnu"

%"class.pxrInternal_v0_24__pxrReserved__::UsdValidationError" = type { ptr, i32, %"class.std::vector", %"class.std::__cxx11::basic_string" }
%"class.std::vector" = type { %"struct.std::_Vector_base" }
%"struct.std::_Vector_base" = type { %"struct.std::_Vector_base<pxrInternal_v0_24__pxrReserved__::UsdValidationErrorSite, std::allocator<pxrInternal_v0_24__pxrReserved__::UsdValidationErrorSite>>::_Vector_impl" }
%"struct.std::_Vector_base<pxrInternal_v0_24__pxrReserved__::UsdValidationErrorSite, std::allocator<pxrInternal_v0_24__pxrReserved__::UsdValidationErrorSite>>::_Vector_impl" = type { %"struct.std::_Vector_base<pxrInternal_v0_24__pxrReserved__::UsdValidationErrorSite, std::allocator<pxrInternal_v0_24__pxrReserved__::UsdValidationErrorSite>>::_Vector_impl_data" }
%"struct.std::_Vector_base<pxrInternal_v0_24__pxrReserved__::UsdValidationErrorSite, std::allocator<pxrInternal_v0_24__pxrReserved__::UsdValidationErrorSite>>::_Vector_impl_data" = type { ptr, ptr, ptr }
%"class.std::__cxx11::basic_string" = type { %"struct.std::__cxx11::basic_string<char>::_Alloc_hider", i64, %union.anon }
%"struct.std::__cxx11::basic_string<char>::_Alloc_hider" = type { ptr }
%union.anon = type { i64, [8 x i8] }

; Function Attrs: mustprogress uwtable
define void @_ZN32pxrInternal_v0_24__pxrReserved__18UsdValidationErrorC2ERKNS_22UsdValidationErrorTypeERKSt6vectorINS_22UsdValidationErrorSiteESaIS5_EERKNSt7__cxx1112basic_stringIcSt11char_traitsIcESaIcEEE(ptr noundef nonnull align 8 dereferenceable(72) %0, ptr noundef nonnull align 4 dereferenceable(4) %1, ptr noundef nonnull align 8 dereferenceable(24) %2, ptr noundef nonnull align 8 dereferenceable(32) %3) unnamed_addr #0 align 2 personality ptr @__gxx_personality_v0 {
  %5 = alloca ptr, align 8
  %6 = alloca ptr, align 8
  %7 = alloca ptr, align 8
  %8 = alloca ptr, align 8
  %9 = alloca ptr, align 8
  %10 = alloca i32, align 4
  store ptr %0, ptr %5, align 8
  store ptr %1, ptr %6, align 8
  store ptr %2, ptr %7, align 8
  store ptr %3, ptr %8, align 8
  %11 = load ptr, ptr %5, align 8
  %12 = getelementptr inbounds nuw %"class.pxrInternal_v0_24__pxrReserved__::UsdValidationError", ptr %11, i32 0, i32 1
  %13 = load ptr, ptr %6, align 8
  %14 = load i32, ptr %13, align 4
  store i32 %14, ptr %12, align 8
  %15 = getelementptr inbounds nuw %"class.pxrInternal_v0_24__pxrReserved__::UsdValidationError", ptr %11, i32 0, i32 2
  %16 = load ptr, ptr %7, align 8
  call void @_ZNSt6vectorIN32pxrInternal_v0_24__pxrReserved__22UsdValidationErrorSiteESaIS1_EEC2ERKS3_(ptr noundef nonnull align 8 dereferenceable(24) %15, ptr noundef nonnull align 8 dereferenceable(24) %16)
  %17 = getelementptr inbounds nuw %"class.pxrInternal_v0_24__pxrReserved__::UsdValidationError", ptr %11, i32 0, i32 3
  %18 = load ptr, ptr %8, align 8
  invoke void @_ZNSt7__cxx1112basic_stringIcSt11char_traitsIcESaIcEEC1ERKS4_(ptr noundef nonnull align 8 dereferenceable(32) %17, ptr noundef nonnull align 8 dereferenceable(32) %18)
          to label %19 unwind label %21

19:                                               ; preds = %4
  %20 = getelementptr inbounds nuw %"class.pxrInternal_v0_24__pxrReserved__::UsdValidationError", ptr %11, i32 0, i32 0
  store ptr null, ptr %20, align 8
  ret void

21:                                               ; preds = %4
  %22 = landingpad { ptr, i32 }
          cleanup
  %23 = extractvalue { ptr, i32 } %22, 0
  store ptr %23, ptr %9, align 8
  %24 = extractvalue { ptr, i32 } %22, 1
  store i32 %24, ptr %10, align 4
  call void @_ZNSt6vectorIN32pxrInternal_v0_24__pxrReserved__22UsdValidationErrorSiteESaIS1_EED2Ev(ptr noundef nonnull align 8 dereferenceable(24) %15) #10
  br label %25

25:                                               ; preds = %21
  %26 = load ptr, ptr %9, align 8
  %27 = load i32, ptr %10, align 4
  %28 = insertvalue { ptr, i32 } poison, ptr %26, 0
  %29 = insertvalue { ptr, i32 } %28, i32 %27, 1
  resume { ptr, i32 } %29
}