; Function Attrs: mustprogress uwtable
define void @_ZN32pxrInternal_v0_24__pxrReserved__18UsdValidationErrorC2ERKNS_22UsdValidationErrorTypeERKSt6vectorINS_22UsdValidationErrorSiteESaIS5_EERKNSt7__cxx1112basic_stringIcSt11char_traitsIcESaIcEEE(ptr noundef nonnull align 8 dereferenceable(72) initializes((8, 12)) %0, ptr noundef nonnull readonly align 4 captures(none) dereferenceable(4) %1, ptr noundef nonnull align 8 dereferenceable(24) %2, ptr noundef nonnull align 8 dereferenceable(32) %3) unnamed_addr #3 align 2 personality ptr @__gxx_personality_v0 {
  %5 = getelementptr inbounds nuw i8, ptr %0, i64 8
  %6 = load i32, ptr %1, align 4
  store i32 %6, ptr %5, align 8
  %7 = getelementptr inbounds nuw i8, ptr %0, i64 16
  tail call void @_ZNSt6vectorIN32pxrInternal_v0_24__pxrReserved__22UsdValidationErrorSiteESaIS1_EEC2ERKS3_(ptr noundef nonnull align 8 dereferenceable(24) %7, ptr noundef nonnull align 8 dereferenceable(24) %2)
  %8 = getelementptr inbounds nuw i8, ptr %0, i64 40
  invoke void @_ZNSt7__cxx1112basic_stringIcSt11char_traitsIcESaIcEEC1ERKS4_(ptr noundef nonnull align 8 dereferenceable(32) %8, ptr noundef nonnull align 8 dereferenceable(32) %3)
          to label %9 unwind label %10

9:                                                ; preds = %4
  store ptr null, ptr %0, align 8
  ret void

10:                                               ; preds = %4
  %11 = landingpad { ptr, i32 }
          cleanup
  tail call void @_ZNSt6vectorIN32pxrInternal_v0_24__pxrReserved__22UsdValidationErrorSiteESaIS1_EED2Ev(ptr noundef nonnull align 8 dereferenceable(24) %7) #12
  resume { ptr, i32 } %11
}